; Function Attrs: null_pointer_is_valid sspstrong uwtable
define hidden noundef i32 @gluster_dissect_common_reply(ptr noundef %0, i32 noundef %1, ptr noundef readnone captures(none) %2, ptr noundef %3, ptr noundef readnone captures(none) %4) local_unnamed_addr #0 {
  %6 = load i32, ptr @hf_gluster_op_ret, align 4
  %7 = tail call i32 @dissect_rpc_uint32(ptr noundef %0, ptr noundef %3, i32 noundef %6, i32 noundef %1)
  %8 = tail call i32 @tvb_get_ntohl(ptr noundef %0, i32 noundef %7)
  %9 = load i32, ptr @hf_gluster_op_errno, align 4
  %10 = tail call ptr @proto_tree_add_int(ptr noundef %3, i32 noundef %9, ptr noundef %0, i32 noundef %7, i32 noundef 4, i32 noundef %8)
  %11 = tail call ptr @val_to_str_ext_const(i32 noundef %8, ptr noundef nonnull @glusterfs_error_codes_ext, ptr noundef nonnull @.str.12)
  tail call void (ptr, ptr, ...) @proto_item_append_text(ptr noundef %10, ptr noundef nonnull @.str.11, ptr noundef %11)
  %12 = add i32 %7, 4
  ret i32 %12
}